target datalayout = "e-m:e-p270:32:32-p271:32:32-p272:64:64-i64:64-i128:128-f80:128-n8:16:32:64-S128"
target triple = "x86_64-pc-linux-gnu"

%struct.tag_arguments_tag = type { i32, i32, ptr, ptr, ptr }
%struct.file_buff_tag = type { i32, [8192 x i8], i64 }

@.str.53 = private unnamed_addr constant [3 x i8] c"=\22\00", align 1

; Function Attrs: nounwind uwtable
define internal void @html_output_flush(ptr noundef %0) #0 {
  %2 = alloca ptr, align 8
  store ptr %0, ptr %2, align 8, !tbaa !46
  %3 = load ptr, ptr %2, align 8, !tbaa !46
  %4 = icmp ne ptr %3, null
  br i1 %4, label %5, label %23

5:                                                ; preds = %1
  %6 = load ptr, ptr %2, align 8, !tbaa !46
  %7 = getelementptr inbounds nuw %struct.file_buff_tag, ptr %6, i32 0, i32 2
  %8 = load i64, ptr %7, align 8, !tbaa !57
  %9 = icmp ugt i64 %8, 0
  br i1 %9, label %10, label %23

10:                                               ; preds = %5
  %11 = load ptr, ptr %2, align 8, !tbaa !46
  %12 = getelementptr inbounds nuw %struct.file_buff_tag, ptr %11, i32 0, i32 0
  %13 = load i32, ptr %12, align 8, !tbaa !55
  %14 = load ptr, ptr %2, align 8, !tbaa !46
  %15 = getelementptr inbounds nuw %struct.file_buff_tag, ptr %14, i32 0, i32 1
  %16 = getelementptr inbounds [8192 x i8], ptr %15, i64 0, i64 0
  %17 = load ptr, ptr %2, align 8, !tbaa !46
  %18 = getelementptr inbounds nuw %struct.file_buff_tag, ptr %17, i32 0, i32 2
  %19 = load i64, ptr %18, align 8, !tbaa !57
  %20 = call i64 @cli_writen(i32 noundef %13, ptr noundef %16, i64 noundef %19)
  %21 = load ptr, ptr %2, align 8, !tbaa !46
  %22 = getelementptr inbounds nuw %struct.file_buff_tag, ptr %21, i32 0, i32 2
  store i64 0, ptr %22, align 8, !tbaa !57
  br label %23

23:                                               ; preds = %10, %5, %1
  ret void
}

; Function Attrs: nounwind uwtable
define internal void @html_output_str(ptr noundef %0, ptr noundef %1, i64 noundef %2) #0 {
  %4 = alloca ptr, align 8
  %5 = alloca ptr, align 8
  %6 = alloca i64, align 8
  store ptr %0, ptr %4, align 8, !tbaa !46
  store ptr %1, ptr %5, align 8, !tbaa !8
  store i64 %2, ptr %6, align 8, !tbaa !28
  %7 = load ptr, ptr %4, align 8, !tbaa !46
  %8 = icmp ne ptr %7, null
  br i1 %8, label %9, label %45

9:                                                ; preds = %3
  %10 = load ptr, ptr %4, align 8, !tbaa !46
  %11 = getelementptr inbounds nuw %struct.file_buff_tag, ptr %10, i32 0, i32 2
  %12 = load i64, ptr %11, align 8, !tbaa !57
  %13 = load i64, ptr %6, align 8, !tbaa !28
  %14 = add i64 %12, %13
  %15 = icmp uge i64 %14, 8192
  br i1 %15, label %16, label %18

16:                                               ; preds = %9
  %17 = load ptr, ptr %4, align 8, !tbaa !46
  call void @html_output_flush(ptr noundef %17)
  br label %18

18:                                               ; preds = %16, %9
  %19 = load i64, ptr %6, align 8, !tbaa !28
  %20 = icmp uge i64 %19, 8192
  br i1 %20, label %21, label %29

21:                                               ; preds = %18
  %22 = load ptr, ptr %4, align 8, !tbaa !46
  call void @html_output_flush(ptr noundef %22)
  %23 = load ptr, ptr %4, align 8, !tbaa !46
  %24 = getelementptr inbounds nuw %struct.file_buff_tag, ptr %23, i32 0, i32 0
  %25 = load i32, ptr %24, align 8, !tbaa !55
  %26 = load ptr, ptr %5, align 8, !tbaa !8
  %27 = load i64, ptr %6, align 8, !tbaa !28
  %28 = call i64 @cli_writen(i32 noundef %25, ptr noundef %26, i64 noundef %27)
  br label %44

29:                                               ; preds = %18
  %30 = load ptr, ptr %4, align 8, !tbaa !46
  %31 = getelementptr inbounds nuw %struct.file_buff_tag, ptr %30, i32 0, i32 1
  %32 = getelementptr inbounds [8192 x i8], ptr %31, i64 0, i64 0
  %33 = load ptr, ptr %4, align 8, !tbaa !46
  %34 = getelementptr inbounds nuw %struct.file_buff_tag, ptr %33, i32 0, i32 2
  %35 = load i64, ptr %34, align 8, !tbaa !57
  %36 = getelementptr inbounds nuw i8, ptr %32, i64 %35
  %37 = load ptr, ptr %5, align 8, !tbaa !8
  %38 = load i64, ptr %6, align 8, !tbaa !28
  call void @llvm.memcpy.p0.p0.i64(ptr align 1 %36, ptr align 1 %37, i64 %38, i1 false)
  %39 = load i64, ptr %6, align 8, !tbaa !28
  %40 = load ptr, ptr %4, align 8, !tbaa !46
  %41 = getelementptr inbounds nuw %struct.file_buff_tag, ptr %40, i32 0, i32 2
  %42 = load i64, ptr %41, align 8, !tbaa !57
  %43 = add i64 %42, %39
  store i64 %43, ptr %41, align 8, !tbaa !57
  br label %44

44:                                               ; preds = %29, %21
  br label %45

45:                                               ; preds = %44, %3
  ret void
}

; Function Attrs: inlinehint nounwind uwtable
define internal void @html_output_c(ptr noundef %0, i8 noundef zeroext %1) #8 {
  %3 = alloca ptr, align 8
  %4 = alloca i8, align 1
  store ptr %0, ptr %3, align 8, !tbaa !46
  store i8 %1, ptr %4, align 1, !tbaa !20
  %5 = load ptr, ptr %3, align 8, !tbaa !46
  %6 = icmp ne ptr %5, null
  br i1 %6, label %7, label %23

7:                                                ; preds = %2
  %8 = load ptr, ptr %3, align 8, !tbaa !46
  %9 = getelementptr inbounds nuw %struct.file_buff_tag, ptr %8, i32 0, i32 2
  %10 = load i64, ptr %9, align 8, !tbaa !57
  %11 = icmp eq i64 %10, 8192
  br i1 %11, label %12, label %14

12:                                               ; preds = %7
  %13 = load ptr, ptr %3, align 8, !tbaa !46
  call void @html_output_flush(ptr noundef %13)
  br label %14

14:                                               ; preds = %12, %7
  %15 = load i8, ptr %4, align 1, !tbaa !20
  %16 = load ptr, ptr %3, align 8, !tbaa !46
  %17 = getelementptr inbounds nuw %struct.file_buff_tag, ptr %16, i32 0, i32 1
  %18 = load ptr, ptr %3, align 8, !tbaa !46
  %19 = getelementptr inbounds nuw %struct.file_buff_tag, ptr %18, i32 0, i32 2
  %20 = load i64, ptr %19, align 8, !tbaa !57
  %21 = add i64 %20, 1
  store i64 %21, ptr %19, align 8, !tbaa !57
  %22 = getelementptr inbounds nuw [8192 x i8], ptr %17, i64 0, i64 %20
  store i8 %15, ptr %22, align 1, !tbaa !20
  br label %23

23:                                               ; preds = %14, %2
  ret void
}

; Function Attrs: nounwind uwtable
define internal void @html_output_tag(ptr noundef %0, ptr noundef %1, ptr noundef %2) #0 {
  %4 = alloca ptr, align 8
  %5 = alloca ptr, align 8
  %6 = alloca ptr, align 8
  %7 = alloca i32, align 4
  %8 = alloca i32, align 4
  %9 = alloca i32, align 4
  %10 = alloca i32, align 4
  %11 = alloca i32, align 4
  store ptr %0, ptr %4, align 8, !tbaa !46
  store ptr %1, ptr %5, align 8, !tbaa !8
  store ptr %2, ptr %6, align 8, !tbaa !3
  call void @llvm.lifetime.start.p0(i64 4, ptr %7) #12
  call void @llvm.lifetime.start.p0(i64 4, ptr %8) #12
  call void @llvm.lifetime.start.p0(i64 4, ptr %9) #12
  %12 = load ptr, ptr %4, align 8, !tbaa !46
  call void @html_output_c(ptr noundef %12, i8 noundef zeroext 60)
  %13 = load ptr, ptr %4, align 8, !tbaa !46
  %14 = load ptr, ptr %5, align 8, !tbaa !8
  %15 = load ptr, ptr %5, align 8, !tbaa !8
  %16 = call i64 @strlen(ptr noundef %15) #13
  call void @html_output_str(ptr noundef %13, ptr noundef %14, i64 noundef %16)
  store i32 0, ptr %7, align 4, !tbaa !14
  br label %17

17:                                               ; preds = %92, %3
  %18 = load i32, ptr %7, align 4, !tbaa !14
  %19 = load ptr, ptr %6, align 8, !tbaa !3
  %20 = getelementptr inbounds nuw %struct.tag_arguments_tag, ptr %19, i32 0, i32 0
  %21 = load i32, ptr %20, align 8, !tbaa !10
  %22 = icmp slt i32 %18, %21
  br i1 %22, label %23, label %95

23:                                               ; preds = %17
  %24 = load ptr, ptr %4, align 8, !tbaa !46
  call void @html_output_c(ptr noundef %24, i8 noundef zeroext 32)
  %25 = load ptr, ptr %4, align 8, !tbaa !46
  %26 = load ptr, ptr %6, align 8, !tbaa !3
  %27 = getelementptr inbounds nuw %struct.tag_arguments_tag, ptr %26, i32 0, i32 2
  %28 = load ptr, ptr %27, align 8, !tbaa !16
  %29 = load i32, ptr %7, align 4, !tbaa !14
  %30 = sext i32 %29 to i64
  %31 = getelementptr inbounds ptr, ptr %28, i64 %30
  %32 = load ptr, ptr %31, align 8, !tbaa !8
  %33 = load ptr, ptr %6, align 8, !tbaa !3
  %34 = getelementptr inbounds nuw %struct.tag_arguments_tag, ptr %33, i32 0, i32 2
  %35 = load ptr, ptr %34, align 8, !tbaa !16
  %36 = load i32, ptr %7, align 4, !tbaa !14
  %37 = sext i32 %36 to i64
  %38 = getelementptr inbounds ptr, ptr %35, i64 %37
  %39 = load ptr, ptr %38, align 8, !tbaa !8
  %40 = call i64 @strlen(ptr noundef %39) #13
  call void @html_output_str(ptr noundef %25, ptr noundef %32, i64 noundef %40)
  %41 = load ptr, ptr %6, align 8, !tbaa !3
  %42 = getelementptr inbounds nuw %struct.tag_arguments_tag, ptr %41, i32 0, i32 3
  %43 = load ptr, ptr %42, align 8, !tbaa !17
  %44 = load i32, ptr %7, align 4, !tbaa !14
  %45 = sext i32 %44 to i64
  %46 = getelementptr inbounds ptr, ptr %43, i64 %45
  %47 = load ptr, ptr %46, align 8, !tbaa !8
  %48 = icmp ne ptr %47, null
  br i1 %48, label %49, label %91

49:                                               ; preds = %23
  %50 = load ptr, ptr %4, align 8, !tbaa !46
  call void @html_output_str(ptr noundef %50, ptr noundef @.str.53, i64 noundef 2)
  %51 = load ptr, ptr %6, align 8, !tbaa !3
  %52 = getelementptr inbounds nuw %struct.tag_arguments_tag, ptr %51, i32 0, i32 3
  %53 = load ptr, ptr %52, align 8, !tbaa !17
  %54 = load i32, ptr %7, align 4, !tbaa !14
  %55 = sext i32 %54 to i64
  %56 = getelementptr inbounds ptr, ptr %53, i64 %55
  %57 = load ptr, ptr %56, align 8, !tbaa !8
  %58 = call i64 @strlen(ptr noundef %57) #13
  %59 = trunc i64 %58 to i32
  store i32 %59, ptr %9, align 4, !tbaa !14
  store i32 0, ptr %8, align 4, !tbaa !14
  br label %60

60:                                               ; preds = %86, %49
  %61 = load i32, ptr %8, align 4, !tbaa !14
  %62 = load i32, ptr %9, align 4, !tbaa !14
  %63 = icmp slt i32 %61, %62
  br i1 %63, label %64, label %89

64:                                               ; preds = %60
  %65 = load ptr, ptr %4, align 8, !tbaa !46
  call void @llvm.lifetime.start.p0(i64 4, ptr %10) #12
  %66 = call ptr @__ctype_tolower_loc() #15
  %67 = load ptr, ptr %66, align 8, !tbaa !62
  %68 = load ptr, ptr %6, align 8, !tbaa !3
  %69 = getelementptr inbounds nuw %struct.tag_arguments_tag, ptr %68, i32 0, i32 3
  %70 = load ptr, ptr %69, align 8, !tbaa !17
  %71 = load i32, ptr %7, align 4, !tbaa !14
  %72 = sext i32 %71 to i64
  %73 = getelementptr inbounds ptr, ptr %70, i64 %72
  %74 = load ptr, ptr %73, align 8, !tbaa !8
  %75 = load i32, ptr %8, align 4, !tbaa !14
  %76 = sext i32 %75 to i64
  %77 = getelementptr inbounds i8, ptr %74, i64 %76
  %78 = load i8, ptr %77, align 1, !tbaa !20
  %79 = zext i8 %78 to i32
  %80 = sext i32 %79 to i64
  %81 = getelementptr inbounds i32, ptr %67, i64 %80
  %82 = load i32, ptr %81, align 4, !tbaa !14
  store i32 %82, ptr %10, align 4, !tbaa !14
  %83 = load i32, ptr %10, align 4, !tbaa !14
  store i32 %83, ptr %11, align 4, !tbaa !14
  call void @llvm.lifetime.end.p0(i64 4, ptr %10) #12
  %84 = load i32, ptr %11, align 4, !tbaa !14
  %85 = trunc i32 %84 to i8
  call void @html_output_c(ptr noundef %65, i8 noundef zeroext %85)
  br label %86

86:                                               ; preds = %64
  %87 = load i32, ptr %8, align 4, !tbaa !14
  %88 = add nsw i32 %87, 1
  store i32 %88, ptr %8, align 4, !tbaa !14
  br label %60

89:                                               ; preds = %60
  %90 = load ptr, ptr %4, align 8, !tbaa !46
  call void @html_output_c(ptr noundef %90, i8 noundef zeroext 34)
  br label %91

91:                                               ; preds = %89, %23
  br label %92

92:                                               ; preds = %91
  %93 = load i32, ptr %7, align 4, !tbaa !14
  %94 = add nsw i32 %93, 1
  store i32 %94, ptr %7, align 4, !tbaa !14
  br label %17

95:                                               ; preds = %17
  %96 = load ptr, ptr %4, align 8, !tbaa !46
  call void @html_output_c(ptr noundef %96, i8 noundef zeroext 62)
  call void @llvm.lifetime.end.p0(i64 4, ptr %9) #12
  call void @llvm.lifetime.end.p0(i64 4, ptr %8) #12
  call void @llvm.lifetime.end.p0(i64 4, ptr %7) #12
  ret void
}