; Function Attrs: nounwind uwtable
define internal fastcc void @html_output_tag(ptr noundef %0, ptr noundef nonnull %1, ptr noundef nonnull readonly captures(none) %2) unnamed_addr #0 {
  %.not.i = icmp eq ptr %0, null
  br i1 %.not.i, label %html_output_str.exit, label %4

4:                                                ; preds = %3
  %5 = getelementptr inbounds nuw i8, ptr %0, i64 8200
  %6 = load i64, ptr %5, align 8, !tbaa !36
  %7 = icmp eq i64 %6, 8192
  br i1 %7, label %html_output_flush.exit.i, label %11

html_output_flush.exit.i:                         ; preds = %4
  %8 = load i32, ptr %0, align 8, !tbaa !34
  %9 = getelementptr inbounds nuw i8, ptr %0, i64 4
  %10 = tail call i64 @cli_writen(i32 noundef %8, ptr noundef nonnull %9, i64 noundef 8192) #17
  br label %11

11:                                               ; preds = %html_output_flush.exit.i, %4
  %12 = phi i64 [ 0, %html_output_flush.exit.i ], [ %6, %4 ]
  %13 = getelementptr inbounds nuw i8, ptr %0, i64 4
  %14 = add i64 %12, 1
  store i64 %14, ptr %5, align 8, !tbaa !36
  %15 = getelementptr inbounds nuw [8192 x i8], ptr %13, i64 0, i64 %12
  store i8 60, ptr %15, align 1, !tbaa !16
  %16 = tail call i64 @strlen(ptr noundef nonnull dereferenceable(1) %1) #18
  %17 = load i64, ptr %5, align 8, !tbaa !36
  %18 = add i64 %17, %16
  %19 = icmp ult i64 %18, 8192
  %.not.i.i = icmp eq i64 %17, 0
  %or.cond.i = or i1 %.not.i.i, %19
  br i1 %or.cond.i, label %html_output_flush.exit.i30, label %html_output_flush.exit.thread.i

html_output_flush.exit.i30:                       ; preds = %11
  %20 = icmp ugt i64 %16, 8191
  br i1 %20, label %24, label %30

html_output_flush.exit.thread.i:                  ; preds = %11
  %21 = load i32, ptr %0, align 8, !tbaa !34
  %22 = tail call i64 @cli_writen(i32 noundef %21, ptr noundef nonnull %13, i64 noundef %17) #17
  store i64 0, ptr %5, align 8, !tbaa !36
  %23 = icmp ugt i64 %16, 8191
  br i1 %23, label %html_output_flush.exit16.i, label %30

24:                                               ; preds = %html_output_flush.exit.i30
  br i1 %.not.i.i, label %html_output_flush.exit16.i, label %25

25:                                               ; preds = %24
  %26 = load i32, ptr %0, align 8, !tbaa !34
  %27 = tail call i64 @cli_writen(i32 noundef %26, ptr noundef nonnull %13, i64 noundef %17) #17
  store i64 0, ptr %5, align 8, !tbaa !36
  br label %html_output_flush.exit16.i

html_output_flush.exit16.i:                       ; preds = %25, %24, %html_output_flush.exit.thread.i
  %28 = load i32, ptr %0, align 8, !tbaa !34
  %29 = tail call i64 @cli_writen(i32 noundef %28, ptr noundef nonnull %1, i64 noundef %16) #17
  br label %html_output_str.exit

30:                                               ; preds = %html_output_flush.exit.thread.i, %html_output_flush.exit.i30
  %31 = phi i64 [ 0, %html_output_flush.exit.thread.i ], [ %17, %html_output_flush.exit.i30 ]
  %32 = getelementptr inbounds nuw i8, ptr %13, i64 %31
  tail call void @llvm.memcpy.p0.p0.i64(ptr nonnull align 1 %32, ptr nonnull align 1 %1, i64 %16, i1 false)
  %33 = load i64, ptr %5, align 8, !tbaa !36
  %34 = add i64 %33, %16
  store i64 %34, ptr %5, align 8, !tbaa !36
  br label %html_output_str.exit

html_output_str.exit:                             ; preds = %3, %html_output_flush.exit16.i, %30
  %35 = load i32, ptr %2, align 8, !tbaa !3
  %36 = icmp sgt i32 %35, 0
  br i1 %36, label %.lr.ph60, label %._crit_edge61

.lr.ph60:                                         ; preds = %html_output_str.exit
  %37 = getelementptr inbounds nuw i8, ptr %0, i64 8200
  %38 = getelementptr inbounds nuw i8, ptr %0, i64 4
  %39 = getelementptr inbounds nuw i8, ptr %2, i64 8
  %40 = getelementptr inbounds nuw i8, ptr %2, i64 16
  br label %41

41:                                               ; preds = %.lr.ph60, %html_output_c.exit53
  %indvars.iv64 = phi i64 [ 0, %.lr.ph60 ], [ %indvars.iv.next65, %html_output_c.exit53 ]
  br i1 %.not.i, label %html_output_c.exit53, label %42

42:                                               ; preds = %41
  %43 = load i64, ptr %37, align 8, !tbaa !36
  %44 = icmp eq i64 %43, 8192
  br i1 %44, label %html_output_flush.exit.i32, label %47

html_output_flush.exit.i32:                       ; preds = %42
  %45 = load i32, ptr %0, align 8, !tbaa !34
  %46 = tail call i64 @cli_writen(i32 noundef %45, ptr noundef nonnull %38, i64 noundef 8192) #17
  br label %47

47:                                               ; preds = %html_output_flush.exit.i32, %42
  %48 = phi i64 [ 0, %html_output_flush.exit.i32 ], [ %43, %42 ]
  %49 = add i64 %48, 1
  store i64 %49, ptr %37, align 8, !tbaa !36
  %50 = getelementptr inbounds nuw [8192 x i8], ptr %38, i64 0, i64 %48
  store i8 32, ptr %50, align 1, !tbaa !16
  %51 = load ptr, ptr %39, align 8, !tbaa !10
  %52 = getelementptr inbounds nuw ptr, ptr %51, i64 %indvars.iv64
  %53 = load ptr, ptr %52, align 8, !tbaa !14
  %54 = tail call i64 @strlen(ptr noundef nonnull dereferenceable(1) %53) #18
  %55 = load i64, ptr %37, align 8, !tbaa !36
  %56 = add i64 %55, %54
  %57 = icmp ult i64 %56, 8192
  %.not.i.i35 = icmp eq i64 %55, 0
  %or.cond.i36 = or i1 %.not.i.i35, %57
  br i1 %or.cond.i36, label %html_output_flush.exit.i39, label %html_output_flush.exit.thread.i37

html_output_flush.exit.i39:                       ; preds = %47
  %58 = icmp ugt i64 %54, 8191
  br i1 %58, label %62, label %68

html_output_flush.exit.thread.i37:                ; preds = %47
  %59 = load i32, ptr %0, align 8, !tbaa !34
  %60 = tail call i64 @cli_writen(i32 noundef %59, ptr noundef nonnull %38, i64 noundef %55) #17
  store i64 0, ptr %37, align 8, !tbaa !36
  %61 = icmp ugt i64 %54, 8191
  br i1 %61, label %html_output_flush.exit16.i38, label %68

62:                                               ; preds = %html_output_flush.exit.i39
  br i1 %.not.i.i35, label %html_output_flush.exit16.i38, label %63

63:                                               ; preds = %62
  %64 = load i32, ptr %0, align 8, !tbaa !34
  %65 = tail call i64 @cli_writen(i32 noundef %64, ptr noundef nonnull %38, i64 noundef %55) #17
  store i64 0, ptr %37, align 8, !tbaa !36
  br label %html_output_flush.exit16.i38

html_output_flush.exit16.i38:                     ; preds = %63, %62, %html_output_flush.exit.thread.i37
  %66 = load i32, ptr %0, align 8, !tbaa !34
  %67 = tail call i64 @cli_writen(i32 noundef %66, ptr noundef nonnull %53, i64 noundef %54) #17
  br label %html_output_str.exit41

68:                                               ; preds = %html_output_flush.exit.thread.i37, %html_output_flush.exit.i39
  %69 = phi i64 [ 0, %html_output_flush.exit.thread.i37 ], [ %55, %html_output_flush.exit.i39 ]
  %70 = getelementptr inbounds nuw i8, ptr %38, i64 %69
  tail call void @llvm.memcpy.p0.p0.i64(ptr nonnull align 1 %70, ptr nonnull align 1 %53, i64 %54, i1 false)
  %71 = load i64, ptr %37, align 8, !tbaa !36
  %72 = add i64 %71, %54
  store i64 %72, ptr %37, align 8, !tbaa !36
  br label %html_output_str.exit41

html_output_str.exit41:                           ; preds = %html_output_flush.exit16.i38, %68
  %73 = load ptr, ptr %40, align 8, !tbaa !11
  %74 = getelementptr inbounds nuw ptr, ptr %73, i64 %indvars.iv64
  %75 = load ptr, ptr %74, align 8, !tbaa !14
  %.not = icmp eq ptr %75, null
  br i1 %.not, label %html_output_c.exit53, label %76

76:                                               ; preds = %html_output_str.exit41
  %77 = load i64, ptr %37, align 8, !tbaa !36
  %78 = add i64 %77, 2
  %79 = icmp ult i64 %78, 8192
  br i1 %79, label %html_output_str.exit47.thread, label %html_output_flush.exit.thread.i45

html_output_flush.exit.thread.i45:                ; preds = %76
  %80 = load i32, ptr %0, align 8, !tbaa !34
  %81 = tail call i64 @cli_writen(i32 noundef %80, ptr noundef nonnull %38, i64 noundef %77) #17
  store i64 0, ptr %37, align 8, !tbaa !36
  br label %html_output_str.exit47.thread

html_output_str.exit47.thread:                    ; preds = %html_output_flush.exit.thread.i45, %76
  %82 = phi i64 [ 0, %html_output_flush.exit.thread.i45 ], [ %77, %76 ]
  %83 = getelementptr inbounds nuw i8, ptr %38, i64 %82
  store i16 8765, ptr %83, align 1
  %84 = load i64, ptr %37, align 8, !tbaa !36
  %85 = add i64 %84, 2
  store i64 %85, ptr %37, align 8, !tbaa !36
  %.pre = load ptr, ptr %40, align 8, !tbaa !11
  %.phi.trans.insert = getelementptr inbounds nuw ptr, ptr %.pre, i64 %indvars.iv64
  %.pre67 = load ptr, ptr %.phi.trans.insert, align 8, !tbaa !14
  %86 = tail call i64 @strlen(ptr noundef nonnull dereferenceable(1) %.pre67) #18
  %87 = trunc i64 %86 to i32
  %88 = icmp sgt i32 %87, 0
  br i1 %88, label %.lr.ph.split.preheader, label %._crit_edge.thread69

.lr.ph.split.preheader:                           ; preds = %html_output_str.exit47.thread
  %89 = tail call ptr @__ctype_tolower_loc() #20
  %wide.trip.count = and i64 %86, 2147483647
  br label %.lr.ph.split

.lr.ph.split:                                     ; preds = %.lr.ph.split.preheader, %html_output_c.exit50
  %indvars.iv = phi i64 [ 0, %.lr.ph.split.preheader ], [ %indvars.iv.next, %html_output_c.exit50 ]
  %90 = load ptr, ptr %89, align 8, !tbaa !41
  %91 = load ptr, ptr %40, align 8, !tbaa !11
  %92 = getelementptr inbounds nuw ptr, ptr %91, i64 %indvars.iv64
  %93 = load ptr, ptr %92, align 8, !tbaa !14
  %94 = getelementptr inbounds nuw i8, ptr %93, i64 %indvars.iv
  %95 = load i8, ptr %94, align 1, !tbaa !16
  %96 = zext i8 %95 to i64
  %97 = getelementptr inbounds nuw i32, ptr %90, i64 %96
  %98 = load i32, ptr %97, align 4, !tbaa !43
  %99 = trunc i32 %98 to i8
  %100 = load i64, ptr %37, align 8, !tbaa !36
  %101 = icmp eq i64 %100, 8192
  br i1 %101, label %html_output_flush.exit.i49, label %html_output_c.exit50

html_output_flush.exit.i49:                       ; preds = %.lr.ph.split
  %102 = load i32, ptr %0, align 8, !tbaa !34
  %103 = tail call i64 @cli_writen(i32 noundef %102, ptr noundef nonnull %38, i64 noundef 8192) #17
  br label %html_output_c.exit50

html_output_c.exit50:                             ; preds = %html_output_flush.exit.i49, %.lr.ph.split
  %104 = phi i64 [ 0, %html_output_flush.exit.i49 ], [ %100, %.lr.ph.split ]
  %105 = add i64 %104, 1
  store i64 %105, ptr %37, align 8, !tbaa !36
  %106 = getelementptr inbounds nuw [8192 x i8], ptr %38, i64 0, i64 %104
  store i8 %99, ptr %106, align 1, !tbaa !16
  %indvars.iv.next = add nuw nsw i64 %indvars.iv, 1
  %exitcond.not = icmp eq i64 %indvars.iv.next, %wide.trip.count
  br i1 %exitcond.not, label %._crit_edge.thread69, label %.lr.ph.split

._crit_edge.thread69:                             ; preds = %html_output_c.exit50, %html_output_str.exit47.thread
  %107 = load i64, ptr %37, align 8, !tbaa !36
  %108 = icmp eq i64 %107, 8192
  br i1 %108, label %html_output_flush.exit.i52, label %111

html_output_flush.exit.i52:                       ; preds = %._crit_edge.thread69
  %109 = load i32, ptr %0, align 8, !tbaa !34
  %110 = tail call i64 @cli_writen(i32 noundef %109, ptr noundef nonnull %38, i64 noundef 8192) #17
  br label %111

111:                                              ; preds = %html_output_flush.exit.i52, %._crit_edge.thread69
  %112 = phi i64 [ 0, %html_output_flush.exit.i52 ], [ %107, %._crit_edge.thread69 ]
  %113 = add i64 %112, 1
  store i64 %113, ptr %37, align 8, !tbaa !36
  %114 = getelementptr inbounds nuw [8192 x i8], ptr %38, i64 0, i64 %112
  store i8 34, ptr %114, align 1, !tbaa !16
  br label %html_output_c.exit53

html_output_c.exit53:                             ; preds = %41, %111, %html_output_str.exit41
  %indvars.iv.next65 = add nuw nsw i64 %indvars.iv64, 1
  %115 = load i32, ptr %2, align 8, !tbaa !3
  %116 = sext i32 %115 to i64
  %117 = icmp slt i64 %indvars.iv.next65, %116
  br i1 %117, label %41, label %._crit_edge61

._crit_edge61:                                    ; preds = %html_output_c.exit53, %html_output_str.exit
  br i1 %.not.i, label %html_output_c.exit56, label %118

118:                                              ; preds = %._crit_edge61
  %119 = getelementptr inbounds nuw i8, ptr %0, i64 8200
  %120 = load i64, ptr %119, align 8, !tbaa !36
  %121 = icmp eq i64 %120, 8192
  br i1 %121, label %html_output_flush.exit.i55, label %125

html_output_flush.exit.i55:                       ; preds = %118
  %122 = load i32, ptr %0, align 8, !tbaa !34
  %123 = getelementptr inbounds nuw i8, ptr %0, i64 4
  %124 = tail call i64 @cli_writen(i32 noundef %122, ptr noundef nonnull %123, i64 noundef 8192) #17
  br label %125

125:                                              ; preds = %html_output_flush.exit.i55, %118
  %126 = phi i64 [ 0, %html_output_flush.exit.i55 ], [ %120, %118 ]
  %127 = getelementptr inbounds nuw i8, ptr %0, i64 4
  %128 = add i64 %126, 1
  store i64 %128, ptr %119, align 8, !tbaa !36
  %129 = getelementptr inbounds nuw [8192 x i8], ptr %127, i64 0, i64 %126
  store i8 62, ptr %129, align 1, !tbaa !16
  br label %html_output_c.exit56

html_output_c.exit56:                             ; preds = %._crit_edge61, %125
  ret void
}